target datalayout = "e-m:e-p270:32:32-p271:32:32-p272:64:64-i64:64-i128:128-f80:128-n8:16:32:64-S128"
target triple = "x86_64-unknown-linux-gnu"

%"class.std::__cxx11::basic_string" = type { %"struct.std::__cxx11::basic_string<char>::_Alloc_hider", i64, %union.anon.8 }
%"struct.std::__cxx11::basic_string<char>::_Alloc_hider" = type { ptr }
%union.anon.8 = type { i64, [8 x i8] }
%"class.OpenImageIO_v2_6_0::ustring" = type { ptr }
%"struct.std::atomic" = type { %"struct.std::__atomic_base" }
%"struct.std::__atomic_base" = type { i64 }
%"struct.std::atomic.14" = type { %"struct.std::__atomic_base.15" }
%"struct.std::__atomic_base.15" = type { i32 }
%"class.OpenImageIO_v2_6_0::pvt::ImageCacheFile" = type { %"class.OpenImageIO_v2_6_0::RefCnt", %"class.OpenImageIO_v2_6_0::ustring", %"class.OpenImageIO_v2_6_0::ustring", i8, i8, i8, %"class.std::__cxx11::basic_string", %"class.std::shared_ptr", %"class.std::vector.62", i32, i32, i32, i32, i32, i8, i8, i16, i16, %"class.OpenImageIO_v2_6_0::ustring", i64, i64, %"struct.std::atomic", %"struct.std::atomic", i64, double, double, i8, i8, i32, %"class.std::vector.67", ptr, %"class.std::recursive_timed_mutex", i64, %"class.OpenImageIO_v2_6_0::ustring", ptr, i64, i64, ptr, %"class.std::unique_ptr.72", %"class.std::vector.80" }
%"class.OpenImageIO_v2_6_0::RefCnt" = type { %"struct.std::atomic.14" }
%"class.std::shared_ptr" = type { %"class.std::__shared_ptr" }
%"class.std::__shared_ptr" = type { ptr, %"class.std::__shared_count" }
%"class.std::__shared_count" = type { ptr }
%"class.std::vector.62" = type { %"struct.std::_Vector_base.63" }
%"struct.std::_Vector_base.63" = type { %"struct.std::_Vector_base<OpenImageIO_v2_6_0::pvt::ImageCacheFile::SubimageInfo, std::allocator<OpenImageIO_v2_6_0::pvt::ImageCacheFile::SubimageInfo>>::_Vector_impl" }
%"struct.std::_Vector_base<OpenImageIO_v2_6_0::pvt::ImageCacheFile::SubimageInfo, std::allocator<OpenImageIO_v2_6_0::pvt::ImageCacheFile::SubimageInfo>>::_Vector_impl" = type { %"struct.std::_Vector_base<OpenImageIO_v2_6_0::pvt::ImageCacheFile::SubimageInfo, std::allocator<OpenImageIO_v2_6_0::pvt::ImageCacheFile::SubimageInfo>>::_Vector_impl_data" }
%"struct.std::_Vector_base<OpenImageIO_v2_6_0::pvt::ImageCacheFile::SubimageInfo, std::allocator<OpenImageIO_v2_6_0::pvt::ImageCacheFile::SubimageInfo>>::_Vector_impl_data" = type { ptr, ptr, ptr }
%"class.std::vector.67" = type { %"struct.std::_Vector_base.68" }
%"struct.std::_Vector_base.68" = type { %"struct.std::_Vector_base<unsigned long, std::allocator<unsigned long>>::_Vector_impl" }
%"struct.std::_Vector_base<unsigned long, std::allocator<unsigned long>>::_Vector_impl" = type { %"struct.std::_Vector_base<unsigned long, std::allocator<unsigned long>>::_Vector_impl_data" }
%"struct.std::_Vector_base<unsigned long, std::allocator<unsigned long>>::_Vector_impl_data" = type { ptr, ptr, ptr }
%"class.std::recursive_timed_mutex" = type { %"class.std::__recursive_mutex_base" }
%"class.std::__recursive_mutex_base" = type { %union.pthread_mutex_t }
%union.pthread_mutex_t = type { %struct.__pthread_mutex_s }
%struct.__pthread_mutex_s = type { i32, i32, i32, i32, i32, i16, i16, %struct.__pthread_internal_list }
%struct.__pthread_internal_list = type { ptr, ptr }
%"class.std::unique_ptr.72" = type { %"struct.std::__uniq_ptr_data.73" }
%"struct.std::__uniq_ptr_data.73" = type { %"class.std::__uniq_ptr_impl.74" }
%"class.std::__uniq_ptr_impl.74" = type { %"class.std::tuple.75" }
%"class.std::tuple.75" = type { %"struct.std::_Tuple_impl.76" }
%"struct.std::_Tuple_impl.76" = type { %"struct.std::_Head_base.79" }
%"struct.std::_Head_base.79" = type { ptr }
%"class.std::vector.80" = type { %"struct.std::_Vector_base.81" }
%"struct.std::_Vector_base.81" = type { %"struct.std::_Vector_base<OpenImageIO_v2_6_0::pvt::UdimInfo, std::allocator<OpenImageIO_v2_6_0::pvt::UdimInfo>>::_Vector_impl" }
%"struct.std::_Vector_base<OpenImageIO_v2_6_0::pvt::UdimInfo, std::allocator<OpenImageIO_v2_6_0::pvt::UdimInfo>>::_Vector_impl" = type { %"struct.std::_Vector_base<OpenImageIO_v2_6_0::pvt::UdimInfo, std::allocator<OpenImageIO_v2_6_0::pvt::UdimInfo>>::_Vector_impl_data" }
%"struct.std::_Vector_base<OpenImageIO_v2_6_0::pvt::UdimInfo, std::allocator<OpenImageIO_v2_6_0::pvt::UdimInfo>>::_Vector_impl_data" = type { ptr, ptr, ptr }

; Function Attrs: mustprogress nounwind uwtable
define linkonce_odr noundef zeroext i1 @_ZNK18OpenImageIO_v2_6_03pvt14ImageCacheFile7is_udimEv(ptr noundef nonnull align 8 dereferenceable(360) %this) #1 comdat align 2 {
entry:
  %this.addr = alloca ptr, align 8
  store ptr %this, ptr %this.addr, align 8
  %this1 = load ptr, ptr %this.addr, align 8
  %m_udim_nutiles = getelementptr inbounds %"class.OpenImageIO_v2_6_0::pvt::ImageCacheFile", ptr %this1, i32 0, i32 16
  %0 = load i16, ptr %m_udim_nutiles, align 2
  %conv = sext i16 %0 to i32
  %cmp = icmp ne i32 %conv, 0
  ret i1 %cmp
}

; Function Attrs: mustprogress uwtable
define hidden noundef zeroext i1 @_ZN18OpenImageIO_v2_6_03pvt17TextureSystemImpl7is_udimEPNS_13TextureSystem13TextureHandleE(ptr noundef nonnull align 8 dereferenceable(184) %this, ptr noundef %udimfile) unnamed_addr #7 align 2 {
entry:
  %this.addr = alloca ptr, align 8
  %udimfile.addr = alloca ptr, align 8
  store ptr %this, ptr %this.addr, align 8
  store ptr %udimfile, ptr %udimfile.addr, align 8
  %0 = load ptr, ptr %udimfile.addr, align 8
  %tobool = icmp ne ptr %0, null
  br i1 %tobool, label %land.rhs, label %land.end

land.rhs:                                         ; preds = %entry
  %1 = load ptr, ptr %udimfile.addr, align 8
  %call = call noundef zeroext i1 @_ZNK18OpenImageIO_v2_6_03pvt14ImageCacheFile7is_udimEv(ptr noundef nonnull align 8 dereferenceable(360) %1)
  br label %land.end

land.end:                                         ; preds = %land.rhs, %entry
  %2 = phi i1 [ false, %entry ], [ %call, %land.rhs ]
  ret i1 %2
}