; Function Attrs: mustprogress nofree norecurse nosync nounwind willreturn memory(argmem: read) uwtable
define hidden noundef zeroext i1 @_ZN18OpenImageIO_v2_6_03pvt17TextureSystemImpl7is_udimEPNS_13TextureSystem13TextureHandleE(ptr nocapture nonnull readnone align 8 %this, ptr noundef readonly %udimfile) unnamed_addr #13 align 2 {
entry:
  %tobool.not = icmp eq ptr %udimfile, null
  br i1 %tobool.not, label %land.end, label %land.rhs

land.rhs:                                         ; preds = %entry
  %m_udim_nutiles.i = getelementptr inbounds i8, ptr %udimfile, i64 126
  %0 = load i16, ptr %m_udim_nutiles.i, align 2
  %cmp.i = icmp ne i16 %0, 0
  br label %land.end

land.end:                                         ; preds = %land.rhs, %entry
  %1 = phi i1 [ false, %entry ], [ %cmp.i, %land.rhs ]
  ret i1 %1
}